cnumpy.core.multiarray
_reconstruct
p0
(cnumpy
ndarray
p1
(I0
tp2
S'b'
p3
tp4
Rp5
(I1
(I5
tp6
cnumpy
dtype
p7
(S'f8'
p8
I0
I1
tp9
Rp10
(I3
S'<'
p11
NNNI-1
I-1
I0
tp12
bI00
S'\x00j\xec_2\xef`\xbfp>:\xf1^\xb5\xc0?\x0elY\xa6\x98~\xd4?H\x01\xd3r0#\xd6?^R4w\xb6\x8a\xd7?'
p13
tp14
b.